ARM GAS  C:\Users\Jorden\AppData\Local\Temp\ccBT85ki.s 			page 1


   1              		.syntax unified
   2              		.cpu cortex-m3
   3              		.fpu softvfp
   4              		.eabi_attribute 20, 1
   5              		.eabi_attribute 21, 1
   6              		.eabi_attribute 23, 3
   7              		.eabi_attribute 24, 1
   8              		.eabi_attribute 25, 1
   9              		.eabi_attribute 26, 1
  10              		.eabi_attribute 30, 1
  11              		.eabi_attribute 34, 1
  12              		.eabi_attribute 18, 4
  13              		.thumb
  14              		.file	"main.c"
  15              		.text
  16              	.Ltext0:
  17              		.cfi_sections	.debug_frame
  18              		.section	.text.init,"ax",%progbits
  19              		.align	2
  20              		.global	init
  21              		.thumb
  22              		.thumb_func
  23              		.type	init, %function
  24              	init:
  25              	.LFB64:
  26              		.file 1 ".\\main.c"
   1:.\main.c      **** /* ========================================
   2:.\main.c      ****  *
   3:.\main.c      ****  * Copyright YOUR COMPANY, THE YEAR
   4:.\main.c      ****  * All Rights Reserved
   5:.\main.c      ****  * UNPUBLISHED, LICENSED SOFTWARE.
   6:.\main.c      ****  *
   7:.\main.c      ****  * CONFIDENTIAL AND PROPRIETARY INFORMATION
   8:.\main.c      ****  * WHICH IS THE PROPERTY OF your company.
   9:.\main.c      ****  *
  10:.\main.c      ****  * ========================================
  11:.\main.c      **** */
  12:.\main.c      **** #include <project.h>
  13:.\main.c      **** #include "motordriver.h"
  14:.\main.c      **** 
  15:.\main.c      **** void init();
  16:.\main.c      **** int main()
  17:.\main.c      **** {
  18:.\main.c      ****    CyGlobalIntEnable; /* Enable global interrupts. */
  19:.\main.c      **** init();
  20:.\main.c      ****     /* Place your initialization/startup code here (e.g. MyInst_Start()) */
  21:.\main.c      ****         setSpeed(30000,MOTOR_A);
  22:.\main.c      ****         setSpeed(30000,MOTOR_B);
  23:.\main.c      ****     for(;;)
  24:.\main.c      ****     {
  25:.\main.c      ****        
  26:.\main.c      ****         goForward();
  27:.\main.c      ****         CyDelay(2000);
  28:.\main.c      ****         stop_all();
  29:.\main.c      ****         CyDelay(2000);
  30:.\main.c      ****         goBackward();
  31:.\main.c      ****         CyDelay(2000);
ARM GAS  C:\Users\Jorden\AppData\Local\Temp\ccBT85ki.s 			page 2


  32:.\main.c      ****         stop_all();
  33:.\main.c      ****         CyDelay(2000);
  34:.\main.c      ****         goLeft();
  35:.\main.c      ****         CyDelay(2000);
  36:.\main.c      ****         stop_all();
  37:.\main.c      ****         CyDelay(2000);
  38:.\main.c      ****         goRight();
  39:.\main.c      ****         CyDelay(2000);
  40:.\main.c      ****         stop_all();
  41:.\main.c      ****         CyDelay(2000);
  42:.\main.c      ****     }
  43:.\main.c      **** }
  44:.\main.c      **** void init()
  45:.\main.c      **** {
  27              		.loc 1 45 0
  28              		.cfi_startproc
  29              		@ args = 0, pretend = 0, frame = 0
  30              		@ frame_needed = 0, uses_anonymous_args = 0
  31 0000 08B5     		push	{r3, lr}
  32              		.cfi_def_cfa_offset 8
  33              		.cfi_offset 3, -8
  34              		.cfi_offset 14, -4
  46:.\main.c      ****     EN_B_PWM_Start();
  35              		.loc 1 46 0
  36 0002 FFF7FEFF 		bl	EN_B_PWM_Start
  37              	.LVL0:
  47:.\main.c      ****     EN_A_PWM_Start();
  38              		.loc 1 47 0
  39 0006 FFF7FEFF 		bl	EN_A_PWM_Start
  40              	.LVL1:
  41 000a 08BD     		pop	{r3, pc}
  42              		.cfi_endproc
  43              	.LFE64:
  44              		.size	init, .-init
  45              		.section	.text.main,"ax",%progbits
  46              		.align	2
  47              		.global	main
  48              		.thumb
  49              		.thumb_func
  50              		.type	main, %function
  51              	main:
  52              	.LFB63:
  17:.\main.c      **** {
  53              		.loc 1 17 0
  54              		.cfi_startproc
  55              		@ Volatile: function does not return.
  56              		@ args = 0, pretend = 0, frame = 0
  57              		@ frame_needed = 0, uses_anonymous_args = 0
  58 0000 08B5     		push	{r3, lr}
  59              		.cfi_def_cfa_offset 8
  60              		.cfi_offset 3, -8
  61              		.cfi_offset 14, -4
  18:.\main.c      ****    CyGlobalIntEnable; /* Enable global interrupts. */
  62              		.loc 1 18 0
  63              	@ 18 ".\main.c" 1
  64 0002 62B6     		CPSIE   i
  65              	@ 0 "" 2
ARM GAS  C:\Users\Jorden\AppData\Local\Temp\ccBT85ki.s 			page 3


  19:.\main.c      **** init();
  66              		.loc 1 19 0
  67              		.thumb
  68 0004 FFF7FEFF 		bl	init
  69              	.LVL2:
  21:.\main.c      ****         setSpeed(30000,MOTOR_A);
  70              		.loc 1 21 0
  71 0008 47F23050 		movw	r0, #30000
  72 000c 0021     		movs	r1, #0
  73 000e FFF7FEFF 		bl	setSpeed
  74              	.LVL3:
  22:.\main.c      ****         setSpeed(30000,MOTOR_B);
  75              		.loc 1 22 0
  76 0012 47F23050 		movw	r0, #30000
  77 0016 0121     		movs	r1, #1
  78 0018 FFF7FEFF 		bl	setSpeed
  79              	.LVL4:
  27:.\main.c      ****         CyDelay(2000);
  80              		.loc 1 27 0
  81 001c 4FF4FA64 		mov	r4, #2000
  82              	.L3:
  26:.\main.c      ****         goForward();
  83              		.loc 1 26 0 discriminator 1
  84 0020 FFF7FEFF 		bl	goForward
  85              	.LVL5:
  27:.\main.c      ****         CyDelay(2000);
  86              		.loc 1 27 0 discriminator 1
  87 0024 2046     		mov	r0, r4
  88 0026 FFF7FEFF 		bl	CyDelay
  89              	.LVL6:
  28:.\main.c      ****         stop_all();
  90              		.loc 1 28 0 discriminator 1
  91 002a FFF7FEFF 		bl	stop_all
  92              	.LVL7:
  29:.\main.c      ****         CyDelay(2000);
  93              		.loc 1 29 0 discriminator 1
  94 002e 2046     		mov	r0, r4
  95 0030 FFF7FEFF 		bl	CyDelay
  96              	.LVL8:
  30:.\main.c      ****         goBackward();
  97              		.loc 1 30 0 discriminator 1
  98 0034 FFF7FEFF 		bl	goBackward
  99              	.LVL9:
  31:.\main.c      ****         CyDelay(2000);
 100              		.loc 1 31 0 discriminator 1
 101 0038 2046     		mov	r0, r4
 102 003a FFF7FEFF 		bl	CyDelay
 103              	.LVL10:
  32:.\main.c      ****         stop_all();
 104              		.loc 1 32 0 discriminator 1
 105 003e FFF7FEFF 		bl	stop_all
 106              	.LVL11:
  33:.\main.c      ****         CyDelay(2000);
 107              		.loc 1 33 0 discriminator 1
 108 0042 2046     		mov	r0, r4
 109 0044 FFF7FEFF 		bl	CyDelay
 110              	.LVL12:
ARM GAS  C:\Users\Jorden\AppData\Local\Temp\ccBT85ki.s 			page 4


  34:.\main.c      ****         goLeft();
 111              		.loc 1 34 0 discriminator 1
 112 0048 FFF7FEFF 		bl	goLeft
 113              	.LVL13:
  35:.\main.c      ****         CyDelay(2000);
 114              		.loc 1 35 0 discriminator 1
 115 004c 2046     		mov	r0, r4
 116 004e FFF7FEFF 		bl	CyDelay
 117              	.LVL14:
  36:.\main.c      ****         stop_all();
 118              		.loc 1 36 0 discriminator 1
 119 0052 FFF7FEFF 		bl	stop_all
 120              	.LVL15:
  37:.\main.c      ****         CyDelay(2000);
 121              		.loc 1 37 0 discriminator 1
 122 0056 2046     		mov	r0, r4
 123 0058 FFF7FEFF 		bl	CyDelay
 124              	.LVL16:
  38:.\main.c      ****         goRight();
 125              		.loc 1 38 0 discriminator 1
 126 005c FFF7FEFF 		bl	goRight
 127              	.LVL17:
  39:.\main.c      ****         CyDelay(2000);
 128              		.loc 1 39 0 discriminator 1
 129 0060 2046     		mov	r0, r4
 130 0062 FFF7FEFF 		bl	CyDelay
 131              	.LVL18:
  40:.\main.c      ****         stop_all();
 132              		.loc 1 40 0 discriminator 1
 133 0066 FFF7FEFF 		bl	stop_all
 134              	.LVL19:
  41:.\main.c      ****         CyDelay(2000);
 135              		.loc 1 41 0 discriminator 1
 136 006a 2046     		mov	r0, r4
 137 006c FFF7FEFF 		bl	CyDelay
 138              	.LVL20:
 139 0070 D6E7     		b	.L3
 140              		.cfi_endproc
 141              	.LFE63:
 142              		.size	main, .-main
 143 0072 00BF     		.text
 144              	.Letext0:
 145              		.file 2 "c:\\program files (x86)\\cypress\\psoc creator\\3.2\\psoc creator\\import\\gnu\\arm\\4.8.
 146              		.file 3 "c:\\program files (x86)\\cypress\\psoc creator\\3.2\\psoc creator\\import\\gnu\\arm\\4.8.
 147              		.file 4 "Generated_Source\\PSoC5/cytypes.h"
 148              		.file 5 "Generated_Source\\PSoC5/EN_B_PWM.h"
 149              		.file 6 "Generated_Source\\PSoC5/EN_A_PWM.h"
 150              		.file 7 ".\\motordriver.h"
 151              		.file 8 "Generated_Source\\PSoC5/CyLib.h"
 152              		.file 9 "Generated_Source\\PSoC5/core_cm3.h"